ccopy_reg
_reconstructor
p0
(cgdata.gauth
OAuth2Token
p1
c__builtin__
object
p2
Ntp3
Rp4
(dp5
S'_invalid'
p6
I00
sS'token_expiry'
p7
cdatetime
datetime
p8
(S'\x07\xe1\n\x1d\x1041\r\xc6\xd9'
p9
tp10
Rp11
sS'access_token'
p12
Vya29.GlvzBH4mO_9gWucBGKMjHyM2s0fKn8CwqkvcgVIJLov2TskzN9oz_VBUfiZAia6FM7Lys1kzIjhruIQfZ6shfjeIr4Uf6HKsrMw9f3qotBaWbP7W1E7zzLflDgkm
p13
sS'token_uri'
p14
S'https://accounts.google.com/o/oauth2/token'
p15
sS'auth_uri'
p16
S'https://accounts.google.com/o/oauth2/auth'
p17
sS'redirect_uri'
p18
S'urn:ietf:wg:oauth:2.0:oob'
p19
sS'user_agent'
p20
S'pythonSmartScreen'
p21
sS'client_id'
p22
S'638742785328-arcuipc5msjtpinajg04osf8ce3jo3mh.apps.googleusercontent.com'
p23
sS'scope'
p24
S'https://picasaweb.google.com/data/'
p25
sS'client_secret'
p26
S'LETPMMcSxHVjWvkWO7zVTTly'
p27
sS'revoke_uri'
p28
S'https://accounts.google.com/o/oauth2/revoke'
p29
sS'refresh_token'
p30
V1/xTRpM8luRDmMbsWG498U7vJNIiUeMorlXfiaPhx0-uY
p31
sb.